target datalayout = "e-m:e-p270:32:32-p271:32:32-p272:64:64-i64:64-i128:128-f80:128-n8:16:32:64-S128"
target triple = "x86_64-pc-linux-gnu"

%struct.redisServer = type { i32, i64, ptr, ptr, ptr, i32, i32, i32, i32, i32, ptr, ptr, ptr, ptr, ptr, i32, i32, i32, i32, i64, i32, i32, i32, i32, ptr, i32, i32, [41 x i8], i32, i64, i32, i32, i32, ptr, ptr, i32, i32, i64, ptr, ptr, ptr, ptr, [2 x i32], i32, i32, i32, i32, i32, i32, [16 x ptr], i32, ptr, ptr, i32, [8 x %struct.connListener], i32, %struct.connListener, ptr, ptr, ptr, ptr, ptr, ptr, ptr, ptr, ptr, ptr, i32, ptr, i32, ptr, [3 x %struct.pause_event], [256 x i8], ptr, i64, i32, i32, [128 x i32], i32, i32, i64, i32, i32, i32, i32, i32, i64, i64, i64, i64, i64, i64, i64, i64, i64, i64, double, i64, i64, i64, i64, i64, i64, i64, i64, i64, i64, i64, i64, i64, i64, i64, i64, i64, i64, i64, i64, i64, double, i64, i64, i64, i64, i64, ptr, i64, i64, i64, %struct.malloc_stats, i64, i64, i64, i64, i64, i64, i64, i64, i64, i64, i64, i64, double, [4 x i64], i64, i64, i64, i64, [128 x i64], [128 x i64], i64, i64, [7 x %struct.anon], i64, i64, i64, i64, i64, i64, [4 x %struct.durationStats], i32, i32, i32, i32, i32, i32, i32, i32, i32, i32, i32, i32, i64, i32, i32, i32, i32, i64, i64, i32, i32, i32, i32, i32, ptr, [3 x %struct.clientBufferLimitsConfig], i32, i32, i32, ptr, i32, i32, i32, i32, i32, i32, ptr, ptr, i32, i32, i64, i64, i64, i64, i64, i32, i32, ptr, i32, i32, i64, i64, i64, i64, i64, i32, i32, i64, i32, i32, i32, i32, i32, i32, i32, i32, ptr, i32, i64, i64, i64, i64, i32, ptr, i32, ptr, i32, i32, i32, i64, i64, i64, i64, i32, i32, i32, i32, i32, i32, ptr, i32, i32, ptr, i32, i32, i32, [2 x i32], i32, %struct.redisOpArray, i32, ptr, i32, ptr, i32, i32, i32, i32, i32, i32, i32, [41 x i8], [41 x i8], i64, i64, i64, i64, i32, i32, ptr, i64, i64, %struct.replDataBuf, i64, i64, i32, i32, i32, i32, i32, i32, i32, i32, i32, i64, ptr, i64, ptr, ptr, ptr, i32, i32, ptr, ptr, i32, i32, i32, i64, i64, i64, i64, ptr, ptr, i32, ptr, i64, i32, i32, i32, i64, i32, i32, i32, i32, ptr, i32, i32, [41 x i8], i64, i32, ptr, i32, i32, i64, i64, i32, i32, i32, i32, i32, i64, [3 x i32], i32, i32, i32, [10 x i32], ptr, ptr, i32, i64, ptr, ptr, i32, i32, i32, i32, i64, i64, i64, i64, i64, i64, i64, i64, i64, i64, i32, i32, i64, i64, i32, i64, i64, i64, i64, i64, ptr, ptr, i32, ptr, i32, i32, i32, i32, i64, i64, ptr, ptr, i32, i32, i32, i32, i32, ptr, ptr, ptr, i32, i32, i32, i32, i32, i32, i32, i64, i32, i32, i64, i32, i32, i32, i32, i32, i32, i32, i64, ptr, ptr, i64, ptr, i32, %struct.aclInfo, i32, i64, i32, i32, i32, %struct.redisTLSContextConfig, ptr, ptr, ptr, ptr, ptr, i64, i32, ptr, i32, i32, i32, i64, i32, ptr }
%struct.connListener = type { [16 x i32], i32, ptr, i32, i32, ptr, ptr }
%struct.pause_event = type { i32, i64 }
%struct.malloc_stats = type { i64, i64, i64, i64, i64, i64, i64, i64, i64, i64, i64 }
%struct.anon = type { i64, i64, [16 x i64], i32 }
%struct.durationStats = type { i64, i64, i64 }
%struct.clientBufferLimitsConfig = type { i64, i64, i64 }
%struct.redisOpArray = type { ptr, i32, i32 }
%struct.replDataBuf = type { ptr, i64, i64, i64, i64 }
%struct.aclInfo = type { i64, i64, i64, i64 }
%struct.redisTLSContextConfig = type { ptr, ptr, ptr, ptr, ptr, ptr, ptr, ptr, ptr, ptr, ptr, ptr, i32, i32, i32, i32 }

@rdbFileBeingLoaded = dso_local global ptr null, align 8
@server = external global %struct.redisServer, align 8

; Function Attrs: nounwind uwtable
define dso_local void @loadingFireEvent(i32 noundef %0) #0 {
  %2 = alloca i32, align 4
  %3 = alloca i32, align 4
  store i32 %0, ptr %2, align 4, !tbaa !5
  call void @llvm.lifetime.start.p0(i64 4, ptr %3) #15
  %4 = load i32, ptr %2, align 4, !tbaa !5
  %5 = and i32 %4, 1
  %6 = icmp ne i32 %5, 0
  br i1 %6, label %7, label %8

7:                                                ; preds = %1
  store i32 1, ptr %3, align 4, !tbaa !5
  br label %15

8:                                                ; preds = %1
  %9 = load i32, ptr %2, align 4, !tbaa !5
  %10 = and i32 %9, 2
  %11 = icmp ne i32 %10, 0
  br i1 %11, label %12, label %13

12:                                               ; preds = %8
  store i32 2, ptr %3, align 4, !tbaa !5
  br label %14

13:                                               ; preds = %8
  store i32 0, ptr %3, align 4, !tbaa !5
  br label %14

14:                                               ; preds = %13, %12
  br label %15

15:                                               ; preds = %14, %7
  %16 = load i32, ptr %3, align 4, !tbaa !5
  call void @moduleFireServerEvent(i64 noundef 3, i32 noundef %16, ptr noundef null)
  call void @llvm.lifetime.end.p0(i64 4, ptr %3) #15
  ret void
}

; Function Attrs: nounwind uwtable
define dso_local void @loadingSetFlags(ptr noundef %0, i64 noundef %1, i32 noundef %2) #0 {
  %4 = alloca ptr, align 8
  %5 = alloca i64, align 8
  %6 = alloca i32, align 4
  store ptr %0, ptr %4, align 8, !tbaa !9
  store i64 %1, ptr %5, align 8, !tbaa !56
  store i32 %2, ptr %6, align 4, !tbaa !5
  %7 = load ptr, ptr %4, align 8, !tbaa !9
  store ptr %7, ptr @rdbFileBeingLoaded, align 8, !tbaa !9
  store volatile i32 1, ptr getelementptr inbounds nuw (%struct.redisServer, ptr @server, i32 0, i32 84), align 4, !tbaa !232
  %8 = load i32, ptr %6, align 4, !tbaa !5
  %9 = icmp eq i32 %8, 1
  br i1 %9, label %10, label %11

10:                                               ; preds = %3
  store volatile i32 1, ptr getelementptr inbounds nuw (%struct.redisServer, ptr @server, i32 0, i32 85), align 8, !tbaa !274
  br label %11

11:                                               ; preds = %10, %3
  %12 = call i64 @time(ptr noundef null) #15
  store i64 %12, ptr getelementptr inbounds nuw (%struct.redisServer, ptr @server, i32 0, i32 89), align 8, !tbaa !275
  store i64 0, ptr getelementptr inbounds nuw (%struct.redisServer, ptr @server, i32 0, i32 88), align 8, !tbaa !12
  %13 = load i64, ptr %5, align 8, !tbaa !56
  store i64 %13, ptr getelementptr inbounds nuw (%struct.redisServer, ptr @server, i32 0, i32 86), align 8, !tbaa !276
  store i64 0, ptr getelementptr inbounds nuw (%struct.redisServer, ptr @server, i32 0, i32 87), align 8, !tbaa !277
  store i64 0, ptr getelementptr inbounds nuw (%struct.redisServer, ptr @server, i32 0, i32 229), align 8, !tbaa !278
  store i64 0, ptr getelementptr inbounds nuw (%struct.redisServer, ptr @server, i32 0, i32 230), align 8, !tbaa !279
  call void @blockingOperationStarts()
  ret void
}

; Function Attrs: nounwind uwtable
define dso_local void @startLoadingFile(i64 noundef %0, ptr noundef %1, i32 noundef %2) #0 {
  %4 = alloca i64, align 8
  %5 = alloca ptr, align 8
  %6 = alloca i32, align 4
  store i64 %0, ptr %4, align 8, !tbaa !56
  store ptr %1, ptr %5, align 8, !tbaa !9
  store i32 %2, ptr %6, align 4, !tbaa !5
  %7 = load ptr, ptr %5, align 8, !tbaa !9
  %8 = load i64, ptr %4, align 8, !tbaa !56
  call void @loadingSetFlags(ptr noundef %7, i64 noundef %8, i32 noundef 0)
  %9 = load i32, ptr %6, align 4, !tbaa !5
  call void @loadingFireEvent(i32 noundef %9)
  ret void
}