; Function Attrs: nounwind uwtable
define dso_local void @startLoadingFile(i64 noundef %0, ptr noundef %1, i32 noundef %2) local_unnamed_addr #0 {
  store ptr %1, ptr @rdbFileBeingLoaded, align 8, !tbaa !52
  store volatile i32 1, ptr getelementptr inbounds nuw (i8, ptr @server, i64 2412), align 4, !tbaa !190
  %4 = tail call i64 @time(ptr noundef null) #23
  store i64 %4, ptr getelementptr inbounds nuw (i8, ptr @server, i64 2448), align 8, !tbaa !226
  store i64 0, ptr getelementptr inbounds nuw (i8, ptr @server, i64 2440), align 8, !tbaa !5
  store i64 %0, ptr getelementptr inbounds nuw (i8, ptr @server, i64 2424), align 8, !tbaa !227
  store i64 0, ptr getelementptr inbounds nuw (i8, ptr @server, i64 2432), align 8, !tbaa !228
  tail call void @llvm.memset.p0.i64(ptr noundef nonnull align 8 dereferenceable(16) getelementptr inbounds nuw (i8, ptr @server, i64 6736), i8 0, i64 16, i1 false)
  tail call void @blockingOperationStarts() #23
  %5 = and i32 %2, 1
  %.not.i = icmp eq i32 %5, 0
  %6 = and i32 %2, 2
  %.0.i = select i1 %.not.i, i32 %6, i32 1
  tail call void @moduleFireServerEvent(i64 noundef 3, i32 noundef %.0.i, ptr noundef null) #23
  ret void
}